libbpf: loading object from /home/yunwei37/workspace/ebpf-verifier-agent/.cache/eval-commits-batch-verification/materialized/eval-bcc-f2006eaa5901/fixed.o
libbpf: elf: section(3) tp_btf/cpu_frequency, size 160, link 0, flags 6, type=1
libbpf: sec 'tp_btf/cpu_frequency': found program 'cpu_frequency' at insn offset 0 (0 bytes), code size 20 insns (160 bytes)
libbpf: elf: section(4) .reltp_btf/cpu_frequency, size 16, link 30, flags 40, type=9
libbpf: elf: section(5) perf_event, size 480, link 0, flags 6, type=1
libbpf: sec 'perf_event': found program 'do_sample' at insn offset 0 (0 bytes), code size 60 insns (480 bytes)
libbpf: elf: section(6) .relperf_event, size 96, link 30, flags 40, type=9
libbpf: elf: section(7) .bss, size 720, link 0, flags 3, type=8
libbpf: elf: section(8) .maps, size 32, link 0, flags 3, type=1
libbpf: elf: section(9) license, size 4, link 0, flags 3, type=1
libbpf: license of /home/yunwei37/workspace/ebpf-verifier-agent/.cache/eval-commits-batch-verification/materialized/eval-bcc-f2006eaa5901/fixed.o is GPL
libbpf: elf: section(20) .BTF, size 2484, link 0, flags 0, type=1
libbpf: elf: section(22) .BTF.ext, size 584, link 0, flags 0, type=1
libbpf: elf: section(30) .symtab, size 624, link 1, flags 0, type=2
libbpf: looking for externs among 26 symbols...
libbpf: collected 0 externs total
libbpf: map 'hists': at sec_idx 8, offset 0.
libbpf: map 'hists': found type = 1.
libbpf: map 'hists': found key [8], sz = 16.
libbpf: map 'hists': found value [12], sz = 104.
libbpf: map 'hists': found max_entries = 1024.
libbpf: map 'fixed.bss' (global data): at sec_idx 7, offset 0, flags 400.
libbpf: map 1 is "fixed.bss"
libbpf: sec '.reltp_btf/cpu_frequency': collecting relocation for section(3) 'tp_btf/cpu_frequency'
libbpf: sec '.reltp_btf/cpu_frequency': relo #0: insn #11 against 'freqs_mhz'
libbpf: prog 'cpu_frequency': found data map 1 (fixed.bss, sec 7, off 0) for insn 11
libbpf: sec '.relperf_event': collecting relocation for section(5) 'perf_event'
libbpf: sec '.relperf_event': relo #0: insn #9 against 'freqs_mhz'
libbpf: prog 'do_sample': found data map 1 (fixed.bss, sec 7, off 0) for insn 9
libbpf: sec '.relperf_event': relo #1: insn #20 against 'syswide'
libbpf: prog 'do_sample': found data map 1 (fixed.bss, sec 7, off 0) for insn 20
libbpf: sec '.relperf_event': relo #2: insn #33 against 'hists'
libbpf: prog 'do_sample': found map 0 (hists, sec 8, off 0) for insn #33
libbpf: sec '.relperf_event': relo #3: insn #40 against 'hists'
libbpf: prog 'do_sample': found map 0 (hists, sec 8, off 0) for insn #40
libbpf: sec '.relperf_event': relo #4: insn #42 against '.bss'
libbpf: prog 'do_sample': found data map 1 (fixed.bss, sec 7, off 0) for insn 42
libbpf: sec '.relperf_event': relo #5: insn #50 against 'hists'
libbpf: prog 'do_sample': found map 0 (hists, sec 8, off 0) for insn #50
libbpf: object 'fixed': failed (-95) to create BPF token from '/sys/fs/bpf', skipping optional step...
libbpf: loaded kernel BTF from '/sys/kernel/btf/vmlinux'
libbpf: map 'hists': created successfully, fd=4
libbpf: map 'fixed.bss': created successfully, fd=5
libbpf: prog 'cpu_frequency': -- BEGIN PROG LOAD LOG --
func#0 @0
Live regs before insn:
  0: .1........ (79) r2 = *(u64 *)(r1 +8)
  1: .12....... (bf) r3 = r2
  2: .123...... (67) r3 <<= 32
  3: .123...... (77) r3 >>= 32
  4: .123...... (25) if r3 > 0x7f goto pc+13
  5: .12....... (79) r1 = *(u64 *)(r1 +0)
  6: .12....... (b5) if r2 <= 0x7f goto pc+1
  7: .1........ (b7) r2 = 127
  8: .12....... (67) r2 <<= 32
  9: .12....... (77) r2 >>= 32
 10: .12....... (67) r2 <<= 2
 11: .12....... (18) r3 = 0xffffd00e81634000
 13: .123...... (0f) r3 += r2
 14: .1.3...... (67) r1 <<= 32
 15: .1.3...... (77) r1 >>= 32
 16: .1.3...... (37) r1 /= 1000
 17: .1.3...... (63) *(u32 *)(r3 +0) = r1
 18: .......... (b7) r0 = 0
 19: 0......... (95) exit
0: R1=ctx() R10=fp0
; int BPF_PROG(cpu_frequency, unsigned int state, unsigned int cpu_id) @ fixed.c:29
0: (79) r2 = *(u64 *)(r1 +8)          ; R1=ctx() R2_w=scalar()
1: (bf) r3 = r2                       ; R2_w=scalar(id=1) R3_w=scalar(id=1)
2: (67) r3 <<= 32                     ; R3_w=scalar(smax=0x7fffffff00000000,umax=0xffffffff00000000,smin32=0,smax32=umax32=0,var_off=(0x0; 0xffffffff00000000))
3: (77) r3 >>= 32                     ; R3_w=scalar(smin=0,smax=umax=0xffffffff,var_off=(0x0; 0xffffffff))
; if (cpu_id >= MAX_CPU_NR) @ fixed.c:31
4: (25) if r3 > 0x7f goto pc+13       ; R3_w=scalar(smin=smin32=0,smax=umax=smax32=umax32=127,var_off=(0x0; 0x7f))
; int BPF_PROG(cpu_frequency, unsigned int state, unsigned int cpu_id) @ fixed.c:29
5: (79) r1 = *(u64 *)(r1 +0)          ; R1_w=scalar()
; clamp_umax(cpu_id, MAX_CPU_NR - 1); @ fixed.c:34
6: (b5) if r2 <= 0x7f goto pc+1       ; R2_w=scalar(id=1,umin=128)
7: (b7) r2 = 127                      ; R2=127
; freqs_mhz[cpu_id] = state / 1000; @ fixed.c:35
8: (67) r2 <<= 32                     ; R2_w=0x7f00000000
9: (77) r2 >>= 32                     ; R2_w=127
10: (67) r2 <<= 2                     ; R2_w=508
11: (18) r3 = 0xffffd00e81634000      ; R3_w=map_value(map=fixed.bss,ks=4,vs=720)
13: (0f) r3 += r2
mark_precise: frame0: last_idx 13 first_idx 8 subseq_idx -1 
mark_precise: frame0: regs=r2 stack= before 11: (18) r3 = 0xffffd00e81634000
mark_precise: frame0: regs=r2 stack= before 10: (67) r2 <<= 2
mark_precise: frame0: regs=r2 stack= before 9: (77) r2 >>= 32
mark_precise: frame0: regs=r2 stack= before 8: (67) r2 <<= 32
mark_precise: frame0: parent state regs=r2 stack=:  R1_w=scalar() R2_rw=P127 R3_w=scalar(smin=smin32=0,smax=umax=smax32=umax32=127,var_off=(0x0; 0x7f)) R10=fp0
mark_precise: frame0: last_idx 7 first_idx 0 subseq_idx 8 
mark_precise: frame0: regs=r2 stack= before 7: (b7) r2 = 127
14: R2_w=508 R3_w=map_value(map=fixed.bss,ks=4,vs=720,off=508)
; int BPF_PROG(cpu_frequency, unsigned int state, unsigned int cpu_id) @ fixed.c:29
14: (67) r1 <<= 32                    ; R1_w=scalar(smax=0x7fffffff00000000,umax=0xffffffff00000000,smin32=0,smax32=umax32=0,var_off=(0x0; 0xffffffff00000000))
15: (77) r1 >>= 32                    ; R1_w=scalar(smin=0,smax=umax=0xffffffff,var_off=(0x0; 0xffffffff))
; freqs_mhz[cpu_id] = state / 1000; @ fixed.c:35
16: (37) r1 /= 1000                   ; R1_w=scalar()
17: (63) *(u32 *)(r3 +0) = r1         ; R1_w=scalar() R3_w=map_value(map=fixed.bss,ks=4,vs=720,off=508)
; int BPF_PROG(cpu_frequency, unsigned int state, unsigned int cpu_id) @ fixed.c:29
18: (b7) r0 = 0                       ; R0_w=0
19: (95) exit

from 6 to 8: R1_w=scalar() R2_w=scalar(id=1,smin=smin32=0,smax=umax=smax32=umax32=127,var_off=(0x0; 0x7f)) R3_w=scalar(smin=smin32=0,smax=umax=smax32=umax32=127,var_off=(0x0; 0x7f)) R10=fp0
8: R1_w=scalar() R2_w=scalar(id=1,smin=smin32=0,smax=umax=smax32=umax32=127,var_off=(0x0; 0x7f)) R3_w=scalar(smin=smin32=0,smax=umax=smax32=umax32=127,var_off=(0x0; 0x7f)) R10=fp0
; freqs_mhz[cpu_id] = state / 1000; @ fixed.c:35
8: (67) r2 <<= 32                     ; R2_w=scalar(smin=smin32=0,smax=umax=0x7f00000000,smax32=umax32=0,var_off=(0x0; 0x7f00000000))
9: (77) r2 >>= 32                     ; R2_w=scalar(smin=smin32=0,smax=umax=smax32=umax32=127,var_off=(0x0; 0x7f))
10: (67) r2 <<= 2                     ; R2_w=scalar(smin=smin32=0,smax=umax=smax32=umax32=508,var_off=(0x0; 0x1fc))
11: (18) r3 = 0xffffd00e81634000      ; R3_w=map_value(map=fixed.bss,ks=4,vs=720)
13: (0f) r3 += r2
mark_precise: frame0: last_idx 13 first_idx 0 subseq_idx -1 
mark_precise: frame0: regs=r2 stack= before 11: (18) r3 = 0xffffd00e81634000
mark_precise: frame0: regs=r2 stack= before 10: (67) r2 <<= 2
mark_precise: frame0: regs=r2 stack= before 9: (77) r2 >>= 32
mark_precise: frame0: regs=r2 stack= before 8: (67) r2 <<= 32
mark_precise: frame0: regs=r2 stack= before 6: (b5) if r2 <= 0x7f goto pc+1
mark_precise: frame0: regs=r2 stack= before 5: (79) r1 = *(u64 *)(r1 +0)
mark_precise: frame0: regs=r2 stack= before 4: (25) if r3 > 0x7f goto pc+13
mark_precise: frame0: regs=r2 stack= before 3: (77) r3 >>= 32
mark_precise: frame0: regs=r2 stack= before 2: (67) r3 <<= 32
mark_precise: frame0: regs=r2 stack= before 1: (bf) r3 = r2
mark_precise: frame0: regs=r2 stack= before 0: (79) r2 = *(u64 *)(r1 +8)
14: R2_w=scalar(smin=smin32=0,smax=umax=smax32=umax32=508,var_off=(0x0; 0x1fc)) R3_w=map_value(map=fixed.bss,ks=4,vs=720,smin=smin32=0,smax=umax=smax32=umax32=508,var_off=(0x0; 0x1fc))
; int BPF_PROG(cpu_frequency, unsigned int state, unsigned int cpu_id) @ fixed.c:29
14: (67) r1 <<= 32                    ; R1_w=scalar(smax=0x7fffffff00000000,umax=0xffffffff00000000,smin32=0,smax32=umax32=0,var_off=(0x0; 0xffffffff00000000))
15: (77) r1 >>= 32                    ; R1_w=scalar(smin=0,smax=umax=0xffffffff,var_off=(0x0; 0xffffffff))
; freqs_mhz[cpu_id] = state / 1000; @ fixed.c:35
16: (37) r1 /= 1000                   ; R1_w=scalar()
17: (63) *(u32 *)(r3 +0) = r1         ; R1_w=scalar() R3_w=map_value(map=fixed.bss,ks=4,vs=720,smin=smin32=0,smax=umax=smax32=umax32=508,var_off=(0x0; 0x1fc))
; int BPF_PROG(cpu_frequency, unsigned int state, unsigned int cpu_id) @ fixed.c:29
18: (b7) r0 = 0                       ; R0_w=0
19: (95) exit

from 4 to 18: R1=ctx() R2=scalar(id=1) R3=scalar(smin=umin=umin32=128,smax=umax=0xffffffff,var_off=(0x0; 0xffffffff)) R10=fp0
18: R1=ctx() R2=scalar(id=1) R3=scalar(smin=umin=umin32=128,smax=umax=0xffffffff,var_off=(0x0; 0xffffffff)) R10=fp0
18: (b7) r0 = 0                       ; R0_w=0
19: (95) exit
verification time 250 usec
stack depth 0
processed 32 insns (limit 1000000) max_states_per_insn 1 total_states 2 peak_states 2 mark_read 1
-- END PROG LOAD LOG --
libbpf: prog 'do_sample': -- BEGIN PROG LOAD LOG --
func#0 @0
Live regs before insn:
  0: .......... (85) call bpf_get_current_pid_tgid#14
  1: 0......... (bf) r6 = r0
  2: ......6... (85) call bpf_get_smp_processor_id#8
  3: 0.....6... (67) r0 <<= 32
  4: 0.....6... (77) r0 >>= 32
  5: 0.....6... (25) if r0 > 0x7f goto pc+52
  6: 0.....6... (b5) if r0 <= 0x7f goto pc+1
  7: ......6... (b7) r0 = 127
  8: 0.....6... (67) r0 <<= 2
  9: 0.....6... (18) r1 = 0xffffd00e81634000
 11: 01....6... (0f) r1 += r0
 12: .1....6... (61) r7 = *(u32 *)(r1 +0)
 13: ......67.. (15) if r7 == 0x0 goto pc+44
 14: ......67.. (37) r7 /= 200
 15: ......67.. (b7) r1 = 25
 16: .1....67.. (2d) if r1 > r7 goto pc+1
 17: ......6... (b7) r7 = 25
 18: ......67.. (bf) r1 = r7
 19: .1....67.. (67) r1 <<= 2
 20: .1....67.. (18) r2 = 0xffffd00e81634200
 22: .12...67.. (0f) r2 += r1
 23: ..2...67.. (b7) r1 = 1
 24: .12...67.. (c3) lock *(u32 *)(r2 +0) += r1
 25: ......67.. (67) r6 <<= 32
 26: ......67.. (77) r6 >>= 32
 27: ......67.. (15) if r6 == 0x0 goto pc+30
 28: .......7.. (bf) r6 = r10
 29: ......67.. (07) r6 += -16
 30: ......67.. (bf) r1 = r6
 31: .1....67.. (b7) r2 = 16
 32: .12...67.. (85) call bpf_get_current_comm#16
 33: ......67.. (18) r1 = 0xffff8f278619ec00
 35: .1....67.. (bf) r2 = r6
 36: .12....7.. (85) call bpf_map_lookup_elem#1
 37: 0......7.. (55) if r0 != 0x0 goto pc+16
 38: .......7.. (bf) r2 = r10
 39: ..2....7.. (07) r2 += -16
 40: ..2....7.. (18) r1 = 0xffff8f278619ec00
 42: .12....7.. (18) r3 = 0xffffd00e81634268
 44: .123...7.. (b7) r4 = 1
 45: .1234..7.. (85) call bpf_map_update_elem#2
 46: 0......7.. (15) if r0 == 0x0 goto pc+1
 47: 0......7.. (55) if r0 != 0xffffffef goto pc+10
 48: .......7.. (bf) r2 = r10
 49: ..2....7.. (07) r2 += -16
 50: ..2....7.. (18) r1 = 0xffff8f278619ec00
 52: .12....7.. (85) call bpf_map_lookup_elem#1
 53: 0......7.. (15) if r0 == 0x0 goto pc+4
 54: 0......7.. (67) r7 <<= 2
 55: 0......7.. (0f) r0 += r7
 56: 0......... (b7) r1 = 1
 57: 01........ (c3) lock *(u32 *)(r0 +0) += r1
 58: .......... (b7) r0 = 0
 59: 0......... (95) exit
0: R1=ctx() R10=fp0
; u32 freq_mhz, pid = bpf_get_current_pid_tgid(); @ fixed.c:42
0: (85) call bpf_get_current_pid_tgid#14      ; R0_w=scalar()
1: (bf) r6 = r0                       ; R0_w=scalar(id=1) R6_w=scalar(id=1)
; u64 slot, cpu = bpf_get_smp_processor_id(); @ fixed.c:43
2: (85) call bpf_get_smp_processor_id#8       ; R0_w=scalar(smin=smin32=0,smax=umax=smax32=umax32=23,var_off=(0x0; 0x1f))
3: (67) r0 <<= 32                     ; R0_w=scalar(smin=smin32=0,smax=umax=0x1700000000,smax32=umax32=0,var_off=(0x0; 0x1f00000000))
4: (77) r0 >>= 32                     ; R0_w=scalar(smin=smin32=0,smax=umax=smax32=umax32=23,var_off=(0x0; 0x1f))
; if (cpu >= MAX_CPU_NR) @ fixed.c:47
5: (25) if r0 > 0x7f goto pc+52
mark_precise: frame0: last_idx 5 first_idx 0 subseq_idx -1 
mark_precise: frame0: regs=r0 stack= before 4: (77) r0 >>= 32
mark_precise: frame0: regs=r0 stack= before 3: (67) r0 <<= 32
mark_precise: frame0: regs=r0 stack= before 2: (85) call bpf_get_smp_processor_id#8
5: R0_w=scalar(smin=smin32=0,smax=umax=smax32=umax32=23,var_off=(0x0; 0x1f))
; clamp_umax(cpu, MAX_CPU_NR - 1); @ fixed.c:49
6: (b5) if r0 <= 0x7f goto pc+1
mark_precise: frame0: last_idx 6 first_idx 0 subseq_idx -1 
mark_precise: frame0: regs=r0 stack= before 5: (25) if r0 > 0x7f goto pc+52
mark_precise: frame0: regs=r0 stack= before 4: (77) r0 >>= 32
mark_precise: frame0: regs=r0 stack= before 3: (67) r0 <<= 32
mark_precise: frame0: regs=r0 stack= before 2: (85) call bpf_get_smp_processor_id#8
6: R0_w=scalar(smin=smin32=0,smax=umax=smax32=umax32=23,var_off=(0x0; 0x1f))
; freq_mhz = freqs_mhz[cpu]; @ fixed.c:50
8: (67) r0 <<= 2                      ; R0_w=scalar(smin=smin32=0,smax=umax=smax32=umax32=92,var_off=(0x0; 0x7c))
9: (18) r1 = 0xffffd00e81634000       ; R1_w=map_value(map=fixed.bss,ks=4,vs=720)
11: (0f) r1 += r0
mark_precise: frame0: last_idx 11 first_idx 8 subseq_idx -1 
mark_precise: frame0: regs=r0 stack= before 9: (18) r1 = 0xffffd00e81634000
mark_precise: frame0: regs=r0 stack= before 8: (67) r0 <<= 2
mark_precise: frame0: parent state regs=r0 stack=:  R0_rw=Pscalar(smin=smin32=0,smax=umax=smax32=umax32=23,var_off=(0x0; 0x1f)) R6_w=scalar(id=1) R10=fp0
mark_precise: frame0: last_idx 6 first_idx 0 subseq_idx 8 
mark_precise: frame0: regs=r0 stack= before 6: (b5) if r0 <= 0x7f goto pc+1
mark_precise: frame0: regs=r0 stack= before 5: (25) if r0 > 0x7f goto pc+52
mark_precise: frame0: regs=r0 stack= before 4: (77) r0 >>= 32
mark_precise: frame0: regs=r0 stack= before 3: (67) r0 <<= 32
mark_precise: frame0: regs=r0 stack= before 2: (85) call bpf_get_smp_processor_id#8
12: R0_w=scalar(smin=smin32=0,smax=umax=smax32=umax32=92,var_off=(0x0; 0x7c)) R1_w=map_value(map=fixed.bss,ks=4,vs=720,smin=smin32=0,smax=umax=smax32=umax32=92,var_off=(0x0; 0x7c))
12: (61) r7 = *(u32 *)(r1 +0)         ; R1_w=map_value(map=fixed.bss,ks=4,vs=720,smin=smin32=0,smax=umax=smax32=umax32=92,var_off=(0x0; 0x7c)) R7_w=scalar(smin=0,smax=umax=0xffffffff,var_off=(0x0; 0xffffffff))
; if (!freq_mhz) @ fixed.c:51
13: (15) if r7 == 0x0 goto pc+44      ; R7_w=scalar(smin=umin=umin32=1,smax=umax=0xffffffff,var_off=(0x0; 0xffffffff))
; slot = freq_mhz / HIST_STEP_SIZE; @ fixed.c:57
14: (37) r7 /= 200                    ; R7_w=scalar()
15: (b7) r1 = 25                      ; R1_w=25
; if (slot >= MAX_SLOTS) @ fixed.c:58
16: (2d) if r1 > r7 goto pc+1         ; R1_w=25 R7_w=scalar(umin=25)
17: (b7) r7 = 25                      ; R7=25
; __sync_fetch_and_add(&syswide.slots[slot], 1); @ fixed.c:60
18: (bf) r1 = r7                      ; R1_w=25 R7=25
19: (67) r1 <<= 2                     ; R1_w=100
20: (18) r2 = 0xffffd00e81634200      ; R2_w=map_value(map=fixed.bss,ks=4,vs=720,off=512)
22: (0f) r2 += r1
mark_precise: frame0: last_idx 22 first_idx 18 subseq_idx -1 
mark_precise: frame0: regs=r1 stack= before 20: (18) r2 = 0xffffd00e81634200
mark_precise: frame0: regs=r1 stack= before 19: (67) r1 <<= 2
mark_precise: frame0: regs=r1 stack= before 18: (bf) r1 = r7
mark_precise: frame0: parent state regs=r7 stack=:  R0_w=scalar(smin=smin32=0,smax=umax=smax32=umax32=92,var_off=(0x0; 0x7c)) R1_w=25 R6=scalar(id=1) R7_rw=P25 R10=fp0
mark_precise: frame0: last_idx 17 first_idx 8 subseq_idx 18 
mark_precise: frame0: regs=r7 stack= before 17: (b7) r7 = 25
23: R1_w=100 R2_w=map_value(map=fixed.bss,ks=4,vs=720,off=612)
23: (b7) r1 = 1                       ; R1_w=1
24: (c3) lock *(u32 *)(r2 +0) += r1   ; R1_w=1 R2_w=map_value(map=fixed.bss,ks=4,vs=720,off=612)
; if (!pid) @ fixed.c:61
25: (67) r6 <<= 32                    ; R6_w=scalar(smax=0x7fffffff00000000,umax=0xffffffff00000000,smin32=0,smax32=umax32=0,var_off=(0x0; 0xffffffff00000000))
26: (77) r6 >>= 32                    ; R6_w=scalar(smin=0,smax=umax=0xffffffff,var_off=(0x0; 0xffffffff))
27: (15) if r6 == 0x0 goto pc+30      ; R6_w=scalar(smin=umin=umin32=1,smax=umax=0xffffffff,var_off=(0x0; 0xffffffff))
28: (bf) r6 = r10                     ; R6_w=fp0 R10=fp0
; bpf_get_current_comm(&hkey.comm, sizeof(hkey.comm)); @ fixed.c:63
29: (07) r6 += -16                    ; R6_w=fp-16
30: (bf) r1 = r6                      ; R1_w=fp-16 R6_w=fp-16
31: (b7) r2 = 16                      ; R2_w=16
32: (85) call bpf_get_current_comm#16
mark_precise: frame0: last_idx 32 first_idx 18 subseq_idx -1 
mark_precise: frame0: regs=r2 stack= before 31: (b7) r2 = 16
33: R0=scalar() fp-8=mmmmmmmm fp-16=mmmmmmmm
; val = bpf_map_lookup_elem(map, key); @ maps.bpf.h:15
33: (18) r1 = 0xffff8f278619ec00      ; R1_w=map_ptr(map=hists,ks=16,vs=104)
35: (bf) r2 = r6                      ; R2_w=fp-16 R6=fp-16
36: (85) call bpf_map_lookup_elem#1   ; R0_w=map_value_or_null(id=2,map=hists,ks=16,vs=104)
; if (val) @ maps.bpf.h:16
37: (55) if r0 != 0x0 goto pc+16      ; R0_w=0
38: (bf) r2 = r10                     ; R2_w=fp0 R10=fp0
; err = bpf_map_update_elem(map, key, init, BPF_NOEXIST); @ maps.bpf.h:19
39: (07) r2 += -16                    ; R2_w=fp-16
40: (18) r1 = 0xffff8f278619ec00      ; R1_w=map_ptr(map=hists,ks=16,vs=104)
42: (18) r3 = 0xffffd00e81634268      ; R3_w=map_value(map=fixed.bss,ks=4,vs=720,off=616)
44: (b7) r4 = 1                       ; R4_w=1
45: (85) call bpf_map_update_elem#2   ; R0=scalar()
; if (err && err != -EEXIST) @ maps.bpf.h:20
46: (15) if r0 == 0x0 goto pc+1       ; R0=scalar(umin=1)
47: (55) if r0 != 0xffffffef goto pc+10       ; R0=-17
48: (bf) r2 = r10                     ; R2_w=fp0 R10=fp0
; return bpf_map_lookup_elem(map, key); @ maps.bpf.h:23
49: (07) r2 += -16                    ; R2_w=fp-16
50: (18) r1 = 0xffff8f278619ec00      ; R1_w=map_ptr(map=hists,ks=16,vs=104)
52: (85) call bpf_map_lookup_elem#1   ; R0_w=map_value_or_null(id=3,map=hists,ks=16,vs=104)
; if (!hist) @ fixed.c:65
53: (15) if r0 == 0x0 goto pc+4       ; R0_w=map_value(map=hists,ks=16,vs=104)
; __sync_fetch_and_add(&hist->slots[slot], 1); @ fixed.c:67
54: (67) r7 <<= 2                     ; R7_w=100
55: (0f) r0 += r7
mark_precise: frame0: last_idx 55 first_idx 46 subseq_idx -1 
mark_precise: frame0: regs=r7 stack= before 54: (67) r7 <<= 2
mark_precise: frame0: regs=r7 stack= before 53: (15) if r0 == 0x0 goto pc+4
mark_precise: frame0: regs=r7 stack= before 52: (85) call bpf_map_lookup_elem#1
mark_precise: frame0: regs=r7 stack= before 50: (18) r1 = 0xffff8f278619ec00
mark_precise: frame0: regs=r7 stack= before 49: (07) r2 += -16
mark_precise: frame0: regs=r7 stack= before 48: (bf) r2 = r10
mark_precise: frame0: regs=r7 stack= before 47: (55) if r0 != 0xffffffef goto pc+10
mark_precise: frame0: regs=r7 stack= before 46: (15) if r0 == 0x0 goto pc+1
mark_precise: frame0: parent state regs=r7 stack=:  R0_rw=scalar() R6=fp-16 R7_r=P25 R10=fp0 fp-8_r=mmmmmmmm fp-16_r=mmmmmmmm
mark_precise: frame0: last_idx 45 first_idx 33 subseq_idx 46 
mark_precise: frame0: regs=r7 stack= before 45: (85) call bpf_map_update_elem#2
mark_precise: frame0: regs=r7 stack= before 44: (b7) r4 = 1
mark_precise: frame0: regs=r7 stack= before 42: (18) r3 = 0xffffd00e81634268
mark_precise: frame0: regs=r7 stack= before 40: (18) r1 = 0xffff8f278619ec00
mark_precise: frame0: regs=r7 stack= before 39: (07) r2 += -16
mark_precise: frame0: regs=r7 stack= before 38: (bf) r2 = r10
mark_precise: frame0: regs=r7 stack= before 37: (55) if r0 != 0x0 goto pc+16
mark_precise: frame0: regs=r7 stack= before 36: (85) call bpf_map_lookup_elem#1
mark_precise: frame0: regs=r7 stack= before 35: (bf) r2 = r6
mark_precise: frame0: regs=r7 stack= before 33: (18) r1 = 0xffff8f278619ec00
mark_precise: frame0: parent state regs=r7 stack=:  R0_w=scalar() R6_rw=fp-16 R7_r=P25 R10=fp0 fp-8_r=mmmmmmmm fp-16_r=mmmmmmmm
mark_precise: frame0: last_idx 32 first_idx 18 subseq_idx 33 
mark_precise: frame0: regs=r7 stack= before 32: (85) call bpf_get_current_comm#16
mark_precise: frame0: regs=r7 stack= before 31: (b7) r2 = 16
mark_precise: frame0: regs=r7 stack= before 30: (bf) r1 = r6
mark_precise: frame0: regs=r7 stack= before 29: (07) r6 += -16
mark_precise: frame0: regs=r7 stack= before 28: (bf) r6 = r10
mark_precise: frame0: regs=r7 stack= before 27: (15) if r6 == 0x0 goto pc+30
mark_precise: frame0: regs=r7 stack= before 26: (77) r6 >>= 32
mark_precise: frame0: regs=r7 stack= before 25: (67) r6 <<= 32
mark_precise: frame0: regs=r7 stack= before 24: (c3) lock *(u32 *)(r2 +0) += r1
mark_precise: frame0: regs=r7 stack= before 23: (b7) r1 = 1
mark_precise: frame0: regs=r7 stack= before 22: (0f) r2 += r1
mark_precise: frame0: regs=r7 stack= before 20: (18) r2 = 0xffffd00e81634200
mark_precise: frame0: regs=r7 stack= before 19: (67) r1 <<= 2
mark_precise: frame0: regs=r7 stack= before 18: (bf) r1 = r7
mark_precise: frame0: parent state regs= stack=:  R0_w=scalar(smin=smin32=0,smax=umax=smax32=umax32=92,var_off=(0x0; 0x7c)) R1_w=25 R6_r=scalar(id=1) R7_rw=P25 R10=fp0
56: R0_w=map_value(map=hists,ks=16,vs=104,off=100) R7_w=100
56: (b7) r1 = 1                       ; R1_w=1
57: (c3) lock *(u32 *)(r0 +0) += r1   ; R0=map_value(map=hists,ks=16,vs=104,off=100) R1=1
; } @ fixed.c:69
58: (b7) r0 = 0                       ; R0_w=0
59: (95) exit

from 53 to 58: safe

from 47 to 58: safe

from 46 to 48: R0=0 R6=fp-16 R7=25 R10=fp0 fp-8=mmmmmmmm fp-16=mmmmmmmm
48: R0=0 R6=fp-16 R7=25 R10=fp0 fp-8=mmmmmmmm fp-16=mmmmmmmm
; if (err && err != -EEXIST) @ maps.bpf.h:20
48: (bf) r2 = r10                     ; R2_w=fp0 R10=fp0
; return bpf_map_lookup_elem(map, key); @ maps.bpf.h:23
49: (07) r2 += -16                    ; R2_w=fp-16
50: (18) r1 = 0xffff8f278619ec00      ; R1_w=map_ptr(map=hists,ks=16,vs=104)
52: (85) call bpf_map_lookup_elem#1   ; R0=map_value_or_null(id=4,map=hists,ks=16,vs=104)
; if (!hist) @ fixed.c:65
53: (15) if r0 == 0x0 goto pc+4       ; R0=map_value(map=hists,ks=16,vs=104)
; __sync_fetch_and_add(&hist->slots[slot], 1); @ fixed.c:67
54: (67) r7 <<= 2                     ; R7_w=100
55: (0f) r0 += r7
mark_precise: frame0: last_idx 55 first_idx 53 subseq_idx -1 
mark_precise: frame0: regs=r7 stack= before 54: (67) r7 <<= 2
mark_precise: frame0: regs=r7 stack= before 53: (15) if r0 == 0x0 goto pc+4
mark_precise: frame0: parent state regs=r7 stack=:  R0_rw=map_value_or_null(id=4,map=hists,ks=16,vs=104) R6=fp-16 R7_r=P25 R10=fp0 fp-8=mmmmmmmm fp-16=mmmmmmmm
mark_precise: frame0: last_idx 52 first_idx 46 subseq_idx 53 
mark_precise: frame0: regs=r7 stack= before 52: (85) call bpf_map_lookup_elem#1
mark_precise: frame0: regs=r7 stack= before 50: (18) r1 = 0xffff8f278619ec00
mark_precise: frame0: regs=r7 stack= before 49: (07) r2 += -16
mark_precise: frame0: regs=r7 stack= before 48: (bf) r2 = r10
mark_precise: frame0: regs=r7 stack= before 46: (15) if r0 == 0x0 goto pc+1
mark_precise: frame0: parent state regs= stack=:  R0_rw=scalar() R6=fp-16 R7_r=P25 R10=fp0 fp-8_r=mmmmmmmm fp-16_r=mmmmmmmm
56: R0_w=map_value(map=hists,ks=16,vs=104,off=100) R7_w=100
56: (b7) r1 = 1                       ; R1_w=1
57: (c3) lock *(u32 *)(r0 +0) += r1
58: safe

from 53 to 58: safe

from 37 to 54: R0_w=map_value(map=hists,ks=16,vs=104) R6=fp-16 R7=25 R10=fp0 fp-8=mmmmmmmm fp-16=mmmmmmmm
54: R0_w=map_value(map=hists,ks=16,vs=104) R6=fp-16 R7=25 R10=fp0 fp-8=mmmmmmmm fp-16=mmmmmmmm
54: (67) r7 <<= 2                     ; R7_w=100
55: (0f) r0 += r7
mark_precise: frame0: last_idx 55 first_idx 33 subseq_idx -1 
mark_precise: frame0: regs=r7 stack= before 54: (67) r7 <<= 2
mark_precise: frame0: regs=r7 stack= before 37: (55) if r0 != 0x0 goto pc+16
mark_precise: frame0: regs=r7 stack= before 36: (85) call bpf_map_lookup_elem#1
mark_precise: frame0: regs=r7 stack= before 35: (bf) r2 = r6
mark_precise: frame0: regs=r7 stack= before 33: (18) r1 = 0xffff8f278619ec00
mark_precise: frame0: parent state regs= stack=:  R0_w=scalar() R6_rw=fp-16 R7_r=P25 R10=fp0 fp-8_r=mmmmmmmm fp-16_r=mmmmmmmm
56: R0_w=map_value(map=hists,ks=16,vs=104,off=100) R7_w=100
56: (b7) r1 = 1                       ; R1_w=1
57: (c3) lock *(u32 *)(r0 +0) += r1
58: safe

from 27 to 58: safe

from 16 to 18: R0_w=scalar(smin=smin32=0,smax=umax=smax32=umax32=92,var_off=(0x0; 0x7c)) R1_w=25 R6=scalar(id=1) R7_w=scalar(smin=smin32=0,smax=umax=smax32=umax32=24,var_off=(0x0; 0x1f)) R10=fp0
18: R0_w=scalar(smin=smin32=0,smax=umax=smax32=umax32=92,var_off=(0x0; 0x7c)) R1_w=25 R6=scalar(id=1) R7_w=scalar(smin=smin32=0,smax=umax=smax32=umax32=24,var_off=(0x0; 0x1f)) R10=fp0
; __sync_fetch_and_add(&syswide.slots[slot], 1); @ fixed.c:60
18: (bf) r1 = r7                      ; R1_w=scalar(id=5,smin=smin32=0,smax=umax=smax32=umax32=24,var_off=(0x0; 0x1f)) R7_w=scalar(id=5,smin=smin32=0,smax=umax=smax32=umax32=24,var_off=(0x0; 0x1f))
19: (67) r1 <<= 2                     ; R1_w=scalar(smin=smin32=0,smax=umax=smax32=umax32=96,var_off=(0x0; 0x7c))
20: (18) r2 = 0xffffd00e81634200      ; R2_w=map_value(map=fixed.bss,ks=4,vs=720,off=512)
22: (0f) r2 += r1
mark_precise: frame0: last_idx 22 first_idx 8 subseq_idx -1 
mark_precise: frame0: regs=r1 stack= before 20: (18) r2 = 0xffffd00e81634200
mark_precise: frame0: regs=r1 stack= before 19: (67) r1 <<= 2
mark_precise: frame0: regs=r1 stack= before 18: (bf) r1 = r7
mark_precise: frame0: regs=r7 stack= before 16: (2d) if r1 > r7 goto pc+1
mark_precise: frame0: regs=r1,r7 stack= before 15: (b7) r1 = 25
mark_precise: frame0: regs=r7 stack= before 14: (37) r7 /= 200
mark_precise: frame0: regs=r7 stack= before 13: (15) if r7 == 0x0 goto pc+44
mark_precise: frame0: regs=r7 stack= before 12: (61) r7 = *(u32 *)(r1 +0)
23: R1_w=scalar(smin=smin32=0,smax=umax=smax32=umax32=96,var_off=(0x0; 0x7c)) R2_w=map_value(map=fixed.bss,ks=4,vs=720,off=512,smin=smin32=0,smax=umax=smax32=umax32=96,var_off=(0x0; 0x7c))
23: (b7) r1 = 1                       ; R1_w=1
24: (c3) lock *(u32 *)(r2 +0) += r1   ; R1_w=1 R2_w=map_value(map=fixed.bss,ks=4,vs=720,off=512,smin=smin32=0,smax=umax=smax32=umax32=96,var_off=(0x0; 0x7c))
; if (!pid) @ fixed.c:61
25: (67) r6 <<= 32                    ; R6_w=scalar(smax=0x7fffffff00000000,umax=0xffffffff00000000,smin32=0,smax32=umax32=0,var_off=(0x0; 0xffffffff00000000))
26: (77) r6 >>= 32                    ; R6_w=scalar(smin=0,smax=umax=0xffffffff,var_off=(0x0; 0xffffffff))
27: (15) if r6 == 0x0 goto pc+30      ; R6_w=scalar(smin=umin=umin32=1,smax=umax=0xffffffff,var_off=(0x0; 0xffffffff))
28: (bf) r6 = r10                     ; R6_w=fp0 R10=fp0
; bpf_get_current_comm(&hkey.comm, sizeof(hkey.comm)); @ fixed.c:63
29: (07) r6 += -16                    ; R6_w=fp-16
30: (bf) r1 = r6                      ; R1_w=fp-16 R6_w=fp-16
31: (b7) r2 = 16                      ; R2_w=16
32: (85) call bpf_get_current_comm#16
mark_precise: frame0: last_idx 32 first_idx 8 subseq_idx -1 
mark_precise: frame0: regs=r2 stack= before 31: (b7) r2 = 16
33: R0=scalar() fp-8=mmmmmmmm fp-16=mmmmmmmm
; val = bpf_map_lookup_elem(map, key); @ maps.bpf.h:15
33: (18) r1 = 0xffff8f278619ec00      ; R1_w=map_ptr(map=hists,ks=16,vs=104)
35: (bf) r2 = r6                      ; R2_w=fp-16 R6=fp-16
36: (85) call bpf_map_lookup_elem#1   ; R0_w=map_value_or_null(id=6,map=hists,ks=16,vs=104)
; if (val) @ maps.bpf.h:16
37: (55) if r0 != 0x0 goto pc+16      ; R0_w=0
38: (bf) r2 = r10                     ; R2_w=fp0 R10=fp0
; err = bpf_map_update_elem(map, key, init, BPF_NOEXIST); @ maps.bpf.h:19
39: (07) r2 += -16                    ; R2_w=fp-16
40: (18) r1 = 0xffff8f278619ec00      ; R1_w=map_ptr(map=hists,ks=16,vs=104)
42: (18) r3 = 0xffffd00e81634268      ; R3_w=map_value(map=fixed.bss,ks=4,vs=720,off=616)
44: (b7) r4 = 1                       ; R4_w=1
45: (85) call bpf_map_update_elem#2   ; R0=scalar()
; if (err && err != -EEXIST) @ maps.bpf.h:20
46: (15) if r0 == 0x0 goto pc+1       ; R0=scalar(umin=1)
47: (55) if r0 != 0xffffffef goto pc+10       ; R0=-17
48: (bf) r2 = r10                     ; R2_w=fp0 R10=fp0
; return bpf_map_lookup_elem(map, key); @ maps.bpf.h:23
49: (07) r2 += -16                    ; R2_w=fp-16
50: (18) r1 = 0xffff8f278619ec00      ; R1_w=map_ptr(map=hists,ks=16,vs=104)
52: (85) call bpf_map_lookup_elem#1   ; R0_w=map_value_or_null(id=7,map=hists,ks=16,vs=104)
; if (!hist) @ fixed.c:65
53: (15) if r0 == 0x0 goto pc+4       ; R0_w=map_value(map=hists,ks=16,vs=104)
; __sync_fetch_and_add(&hist->slots[slot], 1); @ fixed.c:67
54: (67) r7 <<= 2                     ; R7_w=scalar(smin=smin32=0,smax=umax=smax32=umax32=96,var_off=(0x0; 0x7c))
55: (0f) r0 += r7
mark_precise: frame0: last_idx 55 first_idx 46 subseq_idx -1 
mark_precise: frame0: regs=r7 stack= before 54: (67) r7 <<= 2
mark_precise: frame0: regs=r7 stack= before 53: (15) if r0 == 0x0 goto pc+4
mark_precise: frame0: regs=r7 stack= before 52: (85) call bpf_map_lookup_elem#1
mark_precise: frame0: regs=r7 stack= before 50: (18) r1 = 0xffff8f278619ec00
mark_precise: frame0: regs=r7 stack= before 49: (07) r2 += -16
mark_precise: frame0: regs=r7 stack= before 48: (bf) r2 = r10
mark_precise: frame0: regs=r7 stack= before 47: (55) if r0 != 0xffffffef goto pc+10
mark_precise: frame0: regs=r7 stack= before 46: (15) if r0 == 0x0 goto pc+1
mark_precise: frame0: parent state regs=r7 stack=:  R0_rw=scalar() R6=fp-16 R7_r=Pscalar(id=5,smin=smin32=0,smax=umax=smax32=umax32=24,var_off=(0x0; 0x1f)) R10=fp0 fp-8_r=mmmmmmmm fp-16_r=mmmmmmmm
mark_precise: frame0: last_idx 45 first_idx 33 subseq_idx 46 
mark_precise: frame0: regs=r7 stack= before 45: (85) call bpf_map_update_elem#2
mark_precise: frame0: regs=r7 stack= before 44: (b7) r4 = 1
mark_precise: frame0: regs=r7 stack= before 42: (18) r3 = 0xffffd00e81634268
mark_precise: frame0: regs=r7 stack= before 40: (18) r1 = 0xffff8f278619ec00
mark_precise: frame0: regs=r7 stack= before 39: (07) r2 += -16
mark_precise: frame0: regs=r7 stack= before 38: (bf) r2 = r10
mark_precise: frame0: regs=r7 stack= before 37: (55) if r0 != 0x0 goto pc+16
mark_precise: frame0: regs=r7 stack= before 36: (85) call bpf_map_lookup_elem#1
mark_precise: frame0: regs=r7 stack= before 35: (bf) r2 = r6
mark_precise: frame0: regs=r7 stack= before 33: (18) r1 = 0xffff8f278619ec00
mark_precise: frame0: parent state regs=r7 stack=:  R0_w=scalar() R6_rw=fp-16 R7_rw=Pscalar(id=5,smin=smin32=0,smax=umax=smax32=umax32=24,var_off=(0x0; 0x1f)) R10=fp0 fp-8_r=mmmmmmmm fp-16_r=mmmmmmmm
mark_precise: frame0: last_idx 32 first_idx 8 subseq_idx 33 
mark_precise: frame0: regs=r7 stack= before 32: (85) call bpf_get_current_comm#16
mark_precise: frame0: regs=r7 stack= before 31: (b7) r2 = 16
mark_precise: frame0: regs=r7 stack= before 30: (bf) r1 = r6
mark_precise: frame0: regs=r7 stack= before 29: (07) r6 += -16
mark_precise: frame0: regs=r7 stack= before 28: (bf) r6 = r10
mark_precise: frame0: regs=r7 stack= before 27: (15) if r6 == 0x0 goto pc+30
mark_precise: frame0: regs=r7 stack= before 26: (77) r6 >>= 32
mark_precise: frame0: regs=r7 stack= before 25: (67) r6 <<= 32
mark_precise: frame0: regs=r7 stack= before 24: (c3) lock *(u32 *)(r2 +0) += r1
mark_precise: frame0: regs=r7 stack= before 23: (b7) r1 = 1
mark_precise: frame0: regs=r7 stack= before 22: (0f) r2 += r1
mark_precise: frame0: regs=r7 stack= before 20: (18) r2 = 0xffffd00e81634200
mark_precise: frame0: regs=r7 stack= before 19: (67) r1 <<= 2
mark_precise: frame0: regs=r7 stack= before 18: (bf) r1 = r7
mark_precise: frame0: regs=r7 stack= before 16: (2d) if r1 > r7 goto pc+1
mark_precise: frame0: regs=r1,r7 stack= before 15: (b7) r1 = 25
mark_precise: frame0: regs=r7 stack= before 14: (37) r7 /= 200
mark_precise: frame0: regs=r7 stack= before 13: (15) if r7 == 0x0 goto pc+44
mark_precise: frame0: regs=r7 stack= before 12: (61) r7 = *(u32 *)(r1 +0)
56: R0_w=map_value(map=hists,ks=16,vs=104,smin=smin32=0,smax=umax=smax32=umax32=96,var_off=(0x0; 0x7c)) R7_w=scalar(smin=smin32=0,smax=umax=smax32=umax32=96,var_off=(0x0; 0x7c))
56: (b7) r1 = 1                       ; R1_w=1
57: (c3) lock *(u32 *)(r0 +0) += r1
58: safe

from 53 to 58: safe

from 47 to 58: safe

from 46 to 48: R0=0 R6=fp-16 R7=scalar(id=5,smin=smin32=0,smax=umax=smax32=umax32=24,var_off=(0x0; 0x1f)) R10=fp0 fp-8=mmmmmmmm fp-16=mmmmmmmm
48: R0=0 R6=fp-16 R7=scalar(id=5,smin=smin32=0,smax=umax=smax32=umax32=24,var_off=(0x0; 0x1f)) R10=fp0 fp-8=mmmmmmmm fp-16=mmmmmmmm
; if (err && err != -EEXIST) @ maps.bpf.h:20
48: (bf) r2 = r10                     ; R2_w=fp0 R10=fp0
; return bpf_map_lookup_elem(map, key); @ maps.bpf.h:23
49: (07) r2 += -16                    ; R2_w=fp-16
50: (18) r1 = 0xffff8f278619ec00      ; R1_w=map_ptr(map=hists,ks=16,vs=104)
52: (85) call bpf_map_lookup_elem#1   ; R0_w=map_value_or_null(id=8,map=hists,ks=16,vs=104)
; if (!hist) @ fixed.c:65
53: (15) if r0 == 0x0 goto pc+4       ; R0_w=map_value(map=hists,ks=16,vs=104)
; __sync_fetch_and_add(&hist->slots[slot], 1); @ fixed.c:67
54: (67) r7 <<= 2                     ; R7_w=scalar(smin=smin32=0,smax=umax=smax32=umax32=96,var_off=(0x0; 0x7c))
55: (0f) r0 += r7
mark_precise: frame0: last_idx 55 first_idx 48 subseq_idx -1 
mark_precise: frame0: regs=r7 stack= before 54: (67) r7 <<= 2
mark_precise: frame0: regs=r7 stack= before 53: (15) if r0 == 0x0 goto pc+4
mark_precise: frame0: regs=r7 stack= before 52: (85) call bpf_map_lookup_elem#1
mark_precise: frame0: regs=r7 stack= before 50: (18) r1 = 0xffff8f278619ec00
mark_precise: frame0: regs=r7 stack= before 49: (07) r2 += -16
mark_precise: frame0: regs=r7 stack= before 48: (bf) r2 = r10
mark_precise: frame0: parent state regs=r7 stack=:  R0=0 R6=fp-16 R7_r=Pscalar(id=5,smin=smin32=0,smax=umax=smax32=umax32=24,var_off=(0x0; 0x1f)) R10=fp0 fp-8_r=mmmmmmmm fp-16_r=mmmmmmmm
mark_precise: frame0: last_idx 46 first_idx 46 subseq_idx 48 
mark_precise: frame0: regs=r7 stack= before 46: (15) if r0 == 0x0 goto pc+1
mark_precise: frame0: parent state regs= stack=:  R0_rw=scalar() R6=fp-16 R7_r=Pscalar(id=5,smin=smin32=0,smax=umax=smax32=umax32=24,var_off=(0x0; 0x1f)) R10=fp0 fp-8_r=mmmmmmmm fp-16_r=mmmmmmmm
56: R0_w=map_value(map=hists,ks=16,vs=104,smin=smin32=0,smax=umax=smax32=umax32=96,var_off=(0x0; 0x7c)) R7_w=scalar(smin=smin32=0,smax=umax=smax32=umax32=96,var_off=(0x0; 0x7c))
56: (b7) r1 = 1                       ; R1_w=1
57: (c3) lock *(u32 *)(r0 +0) += r1
58: safe

from 53 to 58: safe

from 37 to 54: R0=map_value(map=hists,ks=16,vs=104) R6=fp-16 R7=scalar(id=5,smin=smin32=0,smax=umax=smax32=umax32=24,var_off=(0x0; 0x1f)) R10=fp0 fp-8=mmmmmmmm fp-16=mmmmmmmm
54: R0=map_value(map=hists,ks=16,vs=104) R6=fp-16 R7=scalar(id=5,smin=smin32=0,smax=umax=smax32=umax32=24,var_off=(0x0; 0x1f)) R10=fp0 fp-8=mmmmmmmm fp-16=mmmmmmmm
54: (67) r7 <<= 2                     ; R7_w=scalar(smin=smin32=0,smax=umax=smax32=umax32=96,var_off=(0x0; 0x7c))
55: (0f) r0 += r7
mark_precise: frame0: last_idx 55 first_idx 54 subseq_idx -1 
mark_precise: frame0: regs=r7 stack= before 54: (67) r7 <<= 2
mark_precise: frame0: parent state regs=r7 stack=:  R0_rw=map_value(map=hists,ks=16,vs=104) R6=fp-16 R7_r=Pscalar(id=5,smin=smin32=0,smax=umax=smax32=umax32=24,var_off=(0x0; 0x1f)) R10=fp0 fp-8=mmmmmmmm fp-16=mmmmmmmm
mark_precise: frame0: last_idx 37 first_idx 33 subseq_idx 54 
mark_precise: frame0: regs=r7 stack= before 37: (55) if r0 != 0x0 goto pc+16
mark_precise: frame0: regs=r7 stack= before 36: (85) call bpf_map_lookup_elem#1
mark_precise: frame0: regs=r7 stack= before 35: (bf) r2 = r6
mark_precise: frame0: regs=r7 stack= before 33: (18) r1 = 0xffff8f278619ec00
mark_precise: frame0: parent state regs= stack=:  R0_w=scalar() R6_rw=fp-16 R7_rw=Pscalar(id=5,smin=smin32=0,smax=umax=smax32=umax32=24,var_off=(0x0; 0x1f)) R10=fp0 fp-8_r=mmmmmmmm fp-16_r=mmmmmmmm
56: R0_w=map_value(map=hists,ks=16,vs=104,smin=smin32=0,smax=umax=smax32=umax32=96,var_off=(0x0; 0x7c)) R7_w=scalar(smin=smin32=0,smax=umax=smax32=umax32=96,var_off=(0x0; 0x7c))
56: (b7) r1 = 1                       ; R1_w=1
57: (c3) lock *(u32 *)(r0 +0) += r1
58: safe

from 27 to 58: safe

from 13 to 58: safe
verification time 349 usec
stack depth 16
processed 128 insns (limit 1000000) max_states_per_insn 1 total_states 10 peak_states 10 mark_read 2
-- END PROG LOAD LOG --
libbpf: prog 'cpu_frequency': pinned at '/sys/fs/bpf/eval-bcc-f2006eaa5901_fixed/cpu_frequency'
libbpf: prog 'do_sample': pinned at '/sys/fs/bpf/eval-bcc-f2006eaa5901_fixed/do_sample'
